; Function Attrs: nounwind uwtable
define internal range(i32 -2147483648, 1) i32 @process_command(ptr noundef %0, ptr noundef %1, ptr noundef %2, ptr noundef %3, i32 noundef %4, i32 noundef %5) #2 {
  %7 = getelementptr inbounds nuw i8, ptr %0, i64 56
  %8 = load ptr, ptr %7, align 8, !tbaa !31
  %9 = load ptr, ptr %8, align 8, !tbaa !32
  %10 = tail call i32 @ff_filter_process_command(ptr noundef %0, ptr noundef %1, ptr noundef %2, ptr noundef %3, i32 noundef %4, i32 noundef %5) #14
  %11 = icmp slt i32 %10, 0
  br i1 %11, label %14, label %12

12:                                               ; preds = %6
  %13 = tail call fastcc i32 @config_filter(ptr noundef %9, i32 noundef 0)
  br label %14

14:                                               ; preds = %6, %12
  %.0 = phi i32 [ %13, %12 ], [ %10, %6 ]
  ret i32 %.0
}